target datalayout = "e-m:e-p270:32:32-p271:32:32-p272:64:64-i64:64-i128:128-f80:128-n8:16:32:64-S128"
target triple = "x86_64-pc-linux-gnu"

%struct.JoinPathExtraData = type { ptr, ptr, i8, ptr, %struct.SemiAntiJoinFactors, ptr }
%struct.SemiAntiJoinFactors = type { double, double }
%struct.RelOptInfo = type { i32, i32, ptr, double, i8, i8, i8, ptr, ptr, ptr, ptr, ptr, ptr, ptr, ptr, ptr, ptr, i32, i32, i32, i16, i16, ptr, ptr, ptr, ptr, ptr, ptr, ptr, ptr, i32, double, double, ptr, ptr, ptr, i32, i32, i32, i32, i8, ptr, ptr, ptr, ptr, ptr, %struct.QualCost, i32, ptr, i8, i8, ptr, ptr, ptr, ptr, i32, ptr, i8, ptr, ptr, ptr, ptr, ptr, ptr }
%struct.QualCost = type { double, double }
%struct.SpecialJoinInfo = type { i32, ptr, ptr, ptr, ptr, i32, i32, ptr, ptr, ptr, ptr, i8, i8, i8, ptr, ptr }
%struct.Path = type { i32, i32, ptr, ptr, ptr, i8, i8, i32, double, i32, double, double, ptr }
%struct.ParamPathInfo = type { i32, ptr, double, ptr, ptr }
%struct.JoinCostWorkspace = type { i32, double, double, double, double, double, double, double, double, double, i32, i32, double }

; Function Attrs: inlinehint nounwind uwtable
define internal zeroext i1 @allow_star_schema_join(ptr noundef %0, ptr noundef %1, ptr noundef %2) #4 {
  %4 = alloca ptr, align 8
  %5 = alloca ptr, align 8
  %6 = alloca ptr, align 8
  store ptr %0, ptr %4, align 8
  store ptr %1, ptr %5, align 8
  store ptr %2, ptr %6, align 8
  %7 = load ptr, ptr %6, align 8
  %8 = load ptr, ptr %5, align 8
  %9 = call zeroext i1 @bms_overlap(ptr noundef %7, ptr noundef %8)
  br i1 %9, label %10, label %14

10:                                               ; preds = %3
  %11 = load ptr, ptr %6, align 8
  %12 = load ptr, ptr %5, align 8
  %13 = call zeroext i1 @bms_nonempty_difference(ptr noundef %11, ptr noundef %12)
  br label %14

14:                                               ; preds = %10, %3
  %15 = phi i1 [ false, %3 ], [ %13, %10 ]
  ret i1 %15
}

; Function Attrs: nounwind uwtable
define internal void @try_nestloop_path(ptr noundef %0, ptr noundef %1, ptr noundef %2, ptr noundef %3, ptr noundef %4, i32 noundef %5, ptr noundef %6) #0 {
  %8 = alloca ptr, align 8
  %9 = alloca ptr, align 8
  %10 = alloca ptr, align 8
  %11 = alloca ptr, align 8
  %12 = alloca ptr, align 8
  %13 = alloca i32, align 4
  %14 = alloca ptr, align 8
  %15 = alloca ptr, align 8
  %16 = alloca %struct.JoinCostWorkspace, align 8
  %17 = alloca ptr, align 8
  %18 = alloca ptr, align 8
  %19 = alloca ptr, align 8
  %20 = alloca ptr, align 8
  %21 = alloca ptr, align 8
  %22 = alloca ptr, align 8
  %23 = alloca i32, align 4
  store ptr %0, ptr %8, align 8
  store ptr %1, ptr %9, align 8
  store ptr %2, ptr %10, align 8
  store ptr %3, ptr %11, align 8
  store ptr %4, ptr %12, align 8
  store i32 %5, ptr %13, align 4
  store ptr %6, ptr %14, align 8
  call void @llvm.lifetime.start.p0(i64 8, ptr %15) #6
  call void @llvm.lifetime.start.p0(i64 96, ptr %16) #6
  call void @llvm.lifetime.start.p0(i64 8, ptr %17) #6
  %24 = load ptr, ptr %11, align 8
  %25 = getelementptr inbounds nuw %struct.Path, ptr %24, i32 0, i32 2
  %26 = load ptr, ptr %25, align 8
  store ptr %26, ptr %17, align 8
  call void @llvm.lifetime.start.p0(i64 8, ptr %18) #6
  %27 = load ptr, ptr %10, align 8
  %28 = getelementptr inbounds nuw %struct.Path, ptr %27, i32 0, i32 2
  %29 = load ptr, ptr %28, align 8
  store ptr %29, ptr %18, align 8
  call void @llvm.lifetime.start.p0(i64 8, ptr %19) #6
  call void @llvm.lifetime.start.p0(i64 8, ptr %20) #6
  call void @llvm.lifetime.start.p0(i64 8, ptr %21) #6
  %30 = load ptr, ptr %11, align 8
  %31 = getelementptr inbounds nuw %struct.Path, ptr %30, i32 0, i32 4
  %32 = load ptr, ptr %31, align 8
  %33 = icmp ne ptr %32, null
  br i1 %33, label %34, label %40

34:                                               ; preds = %7
  %35 = load ptr, ptr %11, align 8
  %36 = getelementptr inbounds nuw %struct.Path, ptr %35, i32 0, i32 4
  %37 = load ptr, ptr %36, align 8
  %38 = getelementptr inbounds nuw %struct.ParamPathInfo, ptr %37, i32 0, i32 1
  %39 = load ptr, ptr %38, align 8
  br label %41

40:                                               ; preds = %7
  br label %41

41:                                               ; preds = %40, %34
  %42 = phi ptr [ %39, %34 ], [ null, %40 ]
  store ptr %42, ptr %21, align 8
  call void @llvm.lifetime.start.p0(i64 8, ptr %22) #6
  %43 = load ptr, ptr %10, align 8
  %44 = getelementptr inbounds nuw %struct.Path, ptr %43, i32 0, i32 4
  %45 = load ptr, ptr %44, align 8
  %46 = icmp ne ptr %45, null
  br i1 %46, label %47, label %53

47:                                               ; preds = %41
  %48 = load ptr, ptr %10, align 8
  %49 = getelementptr inbounds nuw %struct.Path, ptr %48, i32 0, i32 4
  %50 = load ptr, ptr %49, align 8
  %51 = getelementptr inbounds nuw %struct.ParamPathInfo, ptr %50, i32 0, i32 1
  %52 = load ptr, ptr %51, align 8
  br label %54

53:                                               ; preds = %41
  br label %54

54:                                               ; preds = %53, %47
  %55 = phi ptr [ %52, %47 ], [ null, %53 ]
  store ptr %55, ptr %22, align 8
  %56 = load ptr, ptr %14, align 8
  %57 = getelementptr inbounds nuw %struct.JoinPathExtraData, ptr %56, i32 0, i32 3
  %58 = load ptr, ptr %57, align 8
  %59 = getelementptr inbounds nuw %struct.SpecialJoinInfo, ptr %58, i32 0, i32 6
  %60 = load i32, ptr %59, align 4
  %61 = icmp ne i32 %60, 0
  br i1 %61, label %62, label %79

62:                                               ; preds = %54
  %63 = load ptr, ptr %14, align 8
  %64 = getelementptr inbounds nuw %struct.JoinPathExtraData, ptr %63, i32 0, i32 3
  %65 = load ptr, ptr %64, align 8
  %66 = getelementptr inbounds nuw %struct.SpecialJoinInfo, ptr %65, i32 0, i32 6
  %67 = load i32, ptr %66, align 4
  %68 = load ptr, ptr %21, align 8
  %69 = call zeroext i1 @bms_is_member(i32 noundef %67, ptr noundef %68)
  br i1 %69, label %78, label %70

70:                                               ; preds = %62
  %71 = load ptr, ptr %14, align 8
  %72 = getelementptr inbounds nuw %struct.JoinPathExtraData, ptr %71, i32 0, i32 3
  %73 = load ptr, ptr %72, align 8
  %74 = getelementptr inbounds nuw %struct.SpecialJoinInfo, ptr %73, i32 0, i32 6
  %75 = load i32, ptr %74, align 4
  %76 = load ptr, ptr %22, align 8
  %77 = call zeroext i1 @bms_is_member(i32 noundef %75, ptr noundef %76)
  br i1 %77, label %78, label %79

78:                                               ; preds = %70, %62
  store i32 1, ptr %23, align 4
  br label %197

79:                                               ; preds = %70, %54
  %80 = load ptr, ptr %17, align 8
  %81 = getelementptr inbounds nuw %struct.RelOptInfo, ptr %80, i32 0, i32 53
  %82 = load ptr, ptr %81, align 8
  %83 = icmp ne ptr %82, null
  br i1 %83, label %84, label %88

84:                                               ; preds = %79
  %85 = load ptr, ptr %17, align 8
  %86 = getelementptr inbounds nuw %struct.RelOptInfo, ptr %85, i32 0, i32 53
  %87 = load ptr, ptr %86, align 8
  store ptr %87, ptr %19, align 8
  br label %92

88:                                               ; preds = %79
  %89 = load ptr, ptr %17, align 8
  %90 = getelementptr inbounds nuw %struct.RelOptInfo, ptr %89, i32 0, i32 2
  %91 = load ptr, ptr %90, align 8
  store ptr %91, ptr %19, align 8
  br label %92

92:                                               ; preds = %88, %84
  %93 = load ptr, ptr %18, align 8
  %94 = getelementptr inbounds nuw %struct.RelOptInfo, ptr %93, i32 0, i32 53
  %95 = load ptr, ptr %94, align 8
  %96 = icmp ne ptr %95, null
  br i1 %96, label %97, label %101

97:                                               ; preds = %92
  %98 = load ptr, ptr %18, align 8
  %99 = getelementptr inbounds nuw %struct.RelOptInfo, ptr %98, i32 0, i32 53
  %100 = load ptr, ptr %99, align 8
  store ptr %100, ptr %20, align 8
  br label %105

101:                                              ; preds = %92
  %102 = load ptr, ptr %18, align 8
  %103 = getelementptr inbounds nuw %struct.RelOptInfo, ptr %102, i32 0, i32 2
  %104 = load ptr, ptr %103, align 8
  store ptr %104, ptr %20, align 8
  br label %105

105:                                              ; preds = %101, %97
  %106 = load ptr, ptr %20, align 8
  %107 = load ptr, ptr %22, align 8
  %108 = load ptr, ptr %19, align 8
  %109 = load ptr, ptr %21, align 8
  %110 = call ptr @calc_nestloop_required_outer(ptr noundef %106, ptr noundef %107, ptr noundef %108, ptr noundef %109)
  store ptr %110, ptr %15, align 8
  %111 = load ptr, ptr %15, align 8
  %112 = icmp ne ptr %111, null
  br i1 %112, label %113, label %131

113:                                              ; preds = %105
  %114 = load ptr, ptr %15, align 8
  %115 = load ptr, ptr %14, align 8
  %116 = getelementptr inbounds nuw %struct.JoinPathExtraData, ptr %115, i32 0, i32 5
  %117 = load ptr, ptr %116, align 8
  %118 = call zeroext i1 @bms_overlap(ptr noundef %114, ptr noundef %117)
  br i1 %118, label %124, label %119

119:                                              ; preds = %113
  %120 = load ptr, ptr %8, align 8
  %121 = load ptr, ptr %20, align 8
  %122 = load ptr, ptr %21, align 8
  %123 = call zeroext i1 @allow_star_schema_join(ptr noundef %120, ptr noundef %121, ptr noundef %122)
  br i1 %123, label %124, label %129

124:                                              ; preds = %119, %113
  %125 = load ptr, ptr %8, align 8
  %126 = load ptr, ptr %20, align 8
  %127 = load ptr, ptr %21, align 8
  %128 = call zeroext i1 @have_dangerous_phv(ptr noundef %125, ptr noundef %126, ptr noundef %127)
  br i1 %128, label %129, label %131

129:                                              ; preds = %124, %119
  %130 = load ptr, ptr %15, align 8
  call void @bms_free(ptr noundef %130)
  store i32 1, ptr %23, align 4
  br label %197

131:                                              ; preds = %124, %105
  %132 = load ptr, ptr %11, align 8
  %133 = getelementptr inbounds nuw %struct.Path, ptr %132, i32 0, i32 4
  %134 = load ptr, ptr %133, align 8
  %135 = icmp ne ptr %134, null
  br i1 %135, label %136, label %164

136:                                              ; preds = %131
  %137 = load ptr, ptr %11, align 8
  %138 = getelementptr inbounds nuw %struct.Path, ptr %137, i32 0, i32 4
  %139 = load ptr, ptr %138, align 8
  %140 = icmp ne ptr %139, null
  br i1 %140, label %141, label %147

141:                                              ; preds = %136
  %142 = load ptr, ptr %11, align 8
  %143 = getelementptr inbounds nuw %struct.Path, ptr %142, i32 0, i32 4
  %144 = load ptr, ptr %143, align 8
  %145 = getelementptr inbounds nuw %struct.ParamPathInfo, ptr %144, i32 0, i32 1
  %146 = load ptr, ptr %145, align 8
  br label %148

147:                                              ; preds = %136
  br label %148

148:                                              ; preds = %147, %141
  %149 = phi ptr [ %146, %141 ], [ null, %147 ]
  %150 = load ptr, ptr %10, align 8
  %151 = getelementptr inbounds nuw %struct.Path, ptr %150, i32 0, i32 2
  %152 = load ptr, ptr %151, align 8
  %153 = getelementptr inbounds nuw %struct.RelOptInfo, ptr %152, i32 0, i32 53
  %154 = load ptr, ptr %153, align 8
  %155 = call zeroext i1 @bms_overlap(ptr noundef %149, ptr noundef %154)
  br i1 %155, label %156, label %164

156:                                              ; preds = %148
  %157 = load ptr, ptr %11, align 8
  %158 = load ptr, ptr %10, align 8
  %159 = getelementptr inbounds nuw %struct.Path, ptr %158, i32 0, i32 2
  %160 = load ptr, ptr %159, align 8
  %161 = call zeroext i1 @path_is_reparameterizable_by_child(ptr noundef %157, ptr noundef %160)
  br i1 %161, label %164, label %162

162:                                              ; preds = %156
  %163 = load ptr, ptr %15, align 8
  call void @bms_free(ptr noundef %163)
  store i32 1, ptr %23, align 4
  br label %197

164:                                              ; preds = %156, %148, %131
  %165 = load ptr, ptr %8, align 8
  %166 = load i32, ptr %13, align 4
  %167 = load ptr, ptr %10, align 8
  %168 = load ptr, ptr %11, align 8
  %169 = load ptr, ptr %14, align 8
  call void @initial_cost_nestloop(ptr noundef %165, ptr noundef %16, i32 noundef %166, ptr noundef %167, ptr noundef %168, ptr noundef %169)
  %170 = load ptr, ptr %9, align 8
  %171 = getelementptr inbounds nuw %struct.JoinCostWorkspace, ptr %16, i32 0, i32 0
  %172 = load i32, ptr %171, align 8
  %173 = getelementptr inbounds nuw %struct.JoinCostWorkspace, ptr %16, i32 0, i32 1
  %174 = load double, ptr %173, align 8
  %175 = getelementptr inbounds nuw %struct.JoinCostWorkspace, ptr %16, i32 0, i32 2
  %176 = load double, ptr %175, align 8
  %177 = load ptr, ptr %12, align 8
  %178 = load ptr, ptr %15, align 8
  %179 = call zeroext i1 @add_path_precheck(ptr noundef %170, i32 noundef %172, double noundef %174, double noundef %176, ptr noundef %177, ptr noundef %178)
  br i1 %179, label %180, label %194

180:                                              ; preds = %164
  %181 = load ptr, ptr %9, align 8
  %182 = load ptr, ptr %8, align 8
  %183 = load ptr, ptr %9, align 8
  %184 = load i32, ptr %13, align 4
  %185 = load ptr, ptr %14, align 8
  %186 = load ptr, ptr %10, align 8
  %187 = load ptr, ptr %11, align 8
  %188 = load ptr, ptr %14, align 8
  %189 = getelementptr inbounds nuw %struct.JoinPathExtraData, ptr %188, i32 0, i32 0
  %190 = load ptr, ptr %189, align 8
  %191 = load ptr, ptr %12, align 8
  %192 = load ptr, ptr %15, align 8
  %193 = call ptr @create_nestloop_path(ptr noundef %182, ptr noundef %183, i32 noundef %184, ptr noundef %16, ptr noundef %185, ptr noundef %186, ptr noundef %187, ptr noundef %190, ptr noundef %191, ptr noundef %192)
  call void @add_path(ptr noundef %181, ptr noundef %193)
  br label %196

194:                                              ; preds = %164
  %195 = load ptr, ptr %15, align 8
  call void @bms_free(ptr noundef %195)
  br label %196

196:                                              ; preds = %194, %180
  store i32 0, ptr %23, align 4
  br label %197

197:                                              ; preds = %196, %162, %129, %78
  call void @llvm.lifetime.end.p0(i64 8, ptr %22) #6
  call void @llvm.lifetime.end.p0(i64 8, ptr %21) #6
  call void @llvm.lifetime.end.p0(i64 8, ptr %20) #6
  call void @llvm.lifetime.end.p0(i64 8, ptr %19) #6
  call void @llvm.lifetime.end.p0(i64 8, ptr %18) #6
  call void @llvm.lifetime.end.p0(i64 8, ptr %17) #6
  call void @llvm.lifetime.end.p0(i64 96, ptr %16) #6
  call void @llvm.lifetime.end.p0(i64 8, ptr %15) #6
  %198 = load i32, ptr %23, align 4
  switch i32 %198, label %200 [
    i32 0, label %199
    i32 1, label %199
  ]

199:                                              ; preds = %197, %197
  ret void

200:                                              ; preds = %197
  unreachable
}