; Function Attrs: nounwind uwtable
define internal fastcc void @try_nestloop_path(ptr noundef %0, ptr noundef %1, ptr noundef %2, ptr noundef %3, ptr noundef %4, i32 noundef range(i32 7, 6) %5, ptr noundef nonnull %6) unnamed_addr #0 {
  %8 = alloca %struct.JoinCostWorkspace, align 8
  call void @llvm.lifetime.start.p0(i64 96, ptr nonnull %8) #5
  %9 = getelementptr inbounds nuw i8, ptr %3, i64 8
  %10 = load ptr, ptr %9, align 8
  %11 = getelementptr inbounds nuw i8, ptr %2, i64 8
  %12 = load ptr, ptr %11, align 8
  %13 = getelementptr inbounds nuw i8, ptr %3, i64 24
  %14 = load ptr, ptr %13, align 8
  %.not = icmp eq ptr %14, null
  br i1 %.not, label %18, label %15

15:                                               ; preds = %7
  %16 = getelementptr inbounds nuw i8, ptr %14, i64 8
  %17 = load ptr, ptr %16, align 8
  br label %18

18:                                               ; preds = %7, %15
  %19 = phi ptr [ %17, %15 ], [ null, %7 ]
  %20 = getelementptr inbounds nuw i8, ptr %2, i64 24
  %21 = load ptr, ptr %20, align 8
  %.not64 = icmp eq ptr %21, null
  br i1 %.not64, label %25, label %22

22:                                               ; preds = %18
  %23 = getelementptr inbounds nuw i8, ptr %21, i64 8
  %24 = load ptr, ptr %23, align 8
  br label %25

25:                                               ; preds = %18, %22
  %26 = phi ptr [ %24, %22 ], [ null, %18 ]
  %27 = getelementptr inbounds nuw i8, ptr %6, i64 24
  %28 = load ptr, ptr %27, align 8
  %29 = getelementptr inbounds nuw i8, ptr %28, i64 44
  %30 = load i32, ptr %29, align 4
  %.not65 = icmp eq i32 %30, 0
  br i1 %.not65, label %38, label %31

31:                                               ; preds = %25
  %32 = tail call zeroext i1 @bms_is_member(i32 noundef %30, ptr noundef %19) #5
  br i1 %32, label %85, label %33

33:                                               ; preds = %31
  %34 = load ptr, ptr %27, align 8
  %35 = getelementptr inbounds nuw i8, ptr %34, i64 44
  %36 = load i32, ptr %35, align 4
  %37 = tail call zeroext i1 @bms_is_member(i32 noundef %36, ptr noundef %26) #5
  br i1 %37, label %85, label %38

38:                                               ; preds = %33, %25
  %39 = getelementptr inbounds nuw i8, ptr %10, i64 360
  %40 = load ptr, ptr %39, align 8
  %.not66 = icmp eq ptr %40, null
  br i1 %.not66, label %41, label %44

41:                                               ; preds = %38
  %42 = getelementptr inbounds nuw i8, ptr %10, i64 8
  %43 = load ptr, ptr %42, align 8
  br label %44

44:                                               ; preds = %38, %41
  %.0 = phi ptr [ %43, %41 ], [ %40, %38 ]
  %45 = getelementptr inbounds nuw i8, ptr %12, i64 360
  %46 = load ptr, ptr %45, align 8
  %.not67 = icmp eq ptr %46, null
  br i1 %.not67, label %47, label %50

47:                                               ; preds = %44
  %48 = getelementptr inbounds nuw i8, ptr %12, i64 8
  %49 = load ptr, ptr %48, align 8
  br label %50

50:                                               ; preds = %44, %47
  %.056 = phi ptr [ %49, %47 ], [ %46, %44 ]
  %51 = tail call ptr @calc_nestloop_required_outer(ptr noundef %.056, ptr noundef %26, ptr noundef %.0, ptr noundef %19) #5
  %.not68 = icmp eq ptr %51, null
  br i1 %.not68, label %61, label %52

52:                                               ; preds = %50
  %53 = getelementptr inbounds nuw i8, ptr %6, i64 48
  %54 = load ptr, ptr %53, align 8
  %55 = tail call zeroext i1 @bms_overlap(ptr noundef nonnull %51, ptr noundef %54) #5
  br i1 %55, label %59, label %56

56:                                               ; preds = %52
  %57 = tail call zeroext i1 @bms_overlap(ptr noundef %19, ptr noundef %.056) #5
  br i1 %57, label %allow_star_schema_join.exit, label %allow_star_schema_join.exit.thread

allow_star_schema_join.exit:                      ; preds = %56
  %58 = tail call zeroext i1 @bms_nonempty_difference(ptr noundef %19, ptr noundef %.056) #5
  br i1 %58, label %59, label %allow_star_schema_join.exit.thread

59:                                               ; preds = %allow_star_schema_join.exit, %52
  %60 = tail call zeroext i1 @have_dangerous_phv(ptr noundef %0, ptr noundef %.056, ptr noundef %19) #5
  br i1 %60, label %allow_star_schema_join.exit.thread, label %61

allow_star_schema_join.exit.thread:               ; preds = %56, %59, %allow_star_schema_join.exit
  tail call void @bms_free(ptr noundef nonnull %51) #5
  br label %85

61:                                               ; preds = %59, %50
  %62 = load ptr, ptr %13, align 8
  %.not69 = icmp eq ptr %62, null
  br i1 %.not69, label %74, label %63

63:                                               ; preds = %61
  %64 = getelementptr inbounds nuw i8, ptr %62, i64 8
  %65 = load ptr, ptr %64, align 8
  %66 = load ptr, ptr %11, align 8
  %67 = getelementptr inbounds nuw i8, ptr %66, i64 360
  %68 = load ptr, ptr %67, align 8
  %69 = tail call zeroext i1 @bms_overlap(ptr noundef %65, ptr noundef %68) #5
  br i1 %69, label %70, label %74

70:                                               ; preds = %63
  %71 = load ptr, ptr %11, align 8
  %72 = tail call zeroext i1 @path_is_reparameterizable_by_child(ptr noundef nonnull %3, ptr noundef %71) #5
  br i1 %72, label %74, label %73

73:                                               ; preds = %70
  tail call void @bms_free(ptr noundef %51) #5
  br label %85

74:                                               ; preds = %70, %63, %61
  call void @initial_cost_nestloop(ptr noundef %0, ptr noundef nonnull %8, i32 noundef %5, ptr noundef nonnull %2, ptr noundef nonnull %3, ptr noundef nonnull %6) #5
  %75 = load i32, ptr %8, align 8
  %76 = getelementptr inbounds nuw i8, ptr %8, i64 8
  %77 = load double, ptr %76, align 8
  %78 = getelementptr inbounds nuw i8, ptr %8, i64 16
  %79 = load double, ptr %78, align 8
  %80 = call zeroext i1 @add_path_precheck(ptr noundef %1, i32 noundef %75, double noundef %77, double noundef %79, ptr noundef %4, ptr noundef %51) #5
  br i1 %80, label %81, label %84

81:                                               ; preds = %74
  %82 = load ptr, ptr %6, align 8
  %83 = call ptr @create_nestloop_path(ptr noundef %0, ptr noundef %1, i32 noundef %5, ptr noundef nonnull %8, ptr noundef nonnull %6, ptr noundef nonnull %2, ptr noundef nonnull %3, ptr noundef %82, ptr noundef %4, ptr noundef %51) #5
  call void @add_path(ptr noundef %1, ptr noundef %83) #5
  br label %85

84:                                               ; preds = %74
  call void @bms_free(ptr noundef %51) #5
  br label %85

85:                                               ; preds = %81, %84, %31, %33, %73, %allow_star_schema_join.exit.thread
  call void @llvm.lifetime.end.p0(i64 96, ptr nonnull %8) #5
  ret void
}